target datalayout = "e-m:e-p270:32:32-p271:32:32-p272:64:64-i64:64-i128:128-f80:128-n8:16:32:64-S128"
target triple = "x86_64-pc-linux-gnu"

%struct.AVFilterContext = type { ptr, ptr, ptr, ptr, ptr, i32, ptr, ptr, i32, ptr, ptr, i32, i32, ptr, ptr, ptr, ptr, i32, ptr, i32, i32 }
%struct.ConcatContext = type { ptr, [2 x i32], i32, i32, i64, i32, i32, ptr }
%struct.AVFilterFormatsConfig = type { ptr, ptr, ptr, ptr, ptr }
%struct.concat_in = type { i64, i64, i32 }
%struct.AVFilterLink = type { ptr, ptr, ptr, ptr, i32, i32, i32, i32, %struct.AVRational, i32, i32, i32, %struct.AVChannelLayout, %struct.AVRational, ptr, i32, %struct.AVFilterFormatsConfig, %struct.AVFilterFormatsConfig }
%struct.AVChannelLayout = type { i32, i32, %union.anon.2, ptr }
%union.anon.2 = type { i64 }
%struct.AVRational = type { i32, i32 }
%struct.AVFrame = type { [8 x ptr], [8 x i32], ptr, i32, i32, i32, i32, i32, %struct.AVRational, i64, i64, %struct.AVRational, i32, ptr, i32, i32, [8 x ptr], ptr, i32, ptr, i32, i32, i32, i32, i32, i32, i32, i64, ptr, i32, ptr, ptr, i64, i64, i64, i64, ptr, %struct.AVChannelLayout, i64 }

; Function Attrs: inlinehint nounwind uwtable
define internal i64 @av_make_q(i32 noundef %0, i32 noundef %1) #5 {
  %3 = alloca %struct.AVRational, align 4
  %4 = alloca i32, align 4
  %5 = alloca i32, align 4
  store i32 %0, ptr %4, align 4, !tbaa !24
  store i32 %1, ptr %5, align 4, !tbaa !24
  %6 = getelementptr inbounds nuw %struct.AVRational, ptr %3, i32 0, i32 0
  %7 = load i32, ptr %4, align 4, !tbaa !24
  store i32 %7, ptr %6, align 4, !tbaa !86
  %8 = getelementptr inbounds nuw %struct.AVRational, ptr %3, i32 0, i32 1
  %9 = load i32, ptr %5, align 4, !tbaa !24
  store i32 %9, ptr %8, align 4, !tbaa !87
  %10 = load i64, ptr %3, align 4
  ret i64 %10
}

; Function Attrs: nounwind uwtable
define internal i32 @push_frame(ptr noundef %0, i32 noundef %1, ptr noundef %2) #1 {
  %4 = alloca ptr, align 8
  %5 = alloca i32, align 4
  %6 = alloca ptr, align 8
  %7 = alloca ptr, align 8
  %8 = alloca i32, align 4
  %9 = alloca ptr, align 8
  %10 = alloca ptr, align 8
  %11 = alloca ptr, align 8
  %12 = alloca %struct.AVRational, align 4
  store ptr %0, ptr %4, align 8, !tbaa !4
  store i32 %1, ptr %5, align 4, !tbaa !24
  store ptr %2, ptr %6, align 8, !tbaa !65
  call void @llvm.lifetime.start.p0(i64 8, ptr %7) #9
  %13 = load ptr, ptr %4, align 8, !tbaa !4
  %14 = getelementptr inbounds nuw %struct.AVFilterContext, ptr %13, i32 0, i32 9
  %15 = load ptr, ptr %14, align 8, !tbaa !9
  store ptr %15, ptr %7, align 8, !tbaa !22
  call void @llvm.lifetime.start.p0(i64 4, ptr %8) #9
  %16 = load i32, ptr %5, align 4, !tbaa !24
  %17 = load ptr, ptr %4, align 8, !tbaa !4
  %18 = getelementptr inbounds nuw %struct.AVFilterContext, ptr %17, i32 0, i32 8
  %19 = load i32, ptr %18, align 8, !tbaa !42
  %20 = urem i32 %16, %19
  store i32 %20, ptr %8, align 4, !tbaa !24
  call void @llvm.lifetime.start.p0(i64 8, ptr %9) #9
  %21 = load ptr, ptr %4, align 8, !tbaa !4
  %22 = getelementptr inbounds nuw %struct.AVFilterContext, ptr %21, i32 0, i32 4
  %23 = load ptr, ptr %22, align 8, !tbaa !61
  %24 = load i32, ptr %5, align 4, !tbaa !24
  %25 = zext i32 %24 to i64
  %26 = getelementptr inbounds nuw ptr, ptr %23, i64 %25
  %27 = load ptr, ptr %26, align 8, !tbaa !57
  store ptr %27, ptr %9, align 8, !tbaa !57
  call void @llvm.lifetime.start.p0(i64 8, ptr %10) #9
  %28 = load ptr, ptr %4, align 8, !tbaa !4
  %29 = getelementptr inbounds nuw %struct.AVFilterContext, ptr %28, i32 0, i32 7
  %30 = load ptr, ptr %29, align 8, !tbaa !56
  %31 = load i32, ptr %8, align 4, !tbaa !24
  %32 = zext i32 %31 to i64
  %33 = getelementptr inbounds nuw ptr, ptr %30, i64 %32
  %34 = load ptr, ptr %33, align 8, !tbaa !57
  store ptr %34, ptr %10, align 8, !tbaa !57
  call void @llvm.lifetime.start.p0(i64 8, ptr %11) #9
  %35 = load ptr, ptr %7, align 8, !tbaa !22
  %36 = getelementptr inbounds nuw %struct.ConcatContext, ptr %35, i32 0, i32 7
  %37 = load ptr, ptr %36, align 8, !tbaa !41
  %38 = load i32, ptr %5, align 4, !tbaa !24
  %39 = zext i32 %38 to i64
  %40 = getelementptr inbounds nuw %struct.concat_in, ptr %37, i64 %39
  store ptr %40, ptr %11, align 8, !tbaa !114
  %41 = load ptr, ptr %6, align 8, !tbaa !65
  %42 = getelementptr inbounds nuw %struct.AVFrame, ptr %41, i32 0, i32 9
  %43 = load i64, ptr %42, align 8, !tbaa !112
  %44 = load ptr, ptr %9, align 8, !tbaa !57
  %45 = getelementptr inbounds nuw %struct.AVFilterLink, ptr %44, i32 0, i32 13
  %46 = load ptr, ptr %10, align 8, !tbaa !57
  %47 = getelementptr inbounds nuw %struct.AVFilterLink, ptr %46, i32 0, i32 13
  %48 = load i64, ptr %45, align 8
  %49 = load i64, ptr %47, align 8
  %50 = call i64 @av_rescale_q(i64 noundef %43, i64 %48, i64 %49) #11
  %51 = load ptr, ptr %6, align 8, !tbaa !65
  %52 = getelementptr inbounds nuw %struct.AVFrame, ptr %51, i32 0, i32 9
  store i64 %50, ptr %52, align 8, !tbaa !112
  %53 = load ptr, ptr %6, align 8, !tbaa !65
  %54 = getelementptr inbounds nuw %struct.AVFrame, ptr %53, i32 0, i32 38
  %55 = load i64, ptr %54, align 8, !tbaa !115
  %56 = load ptr, ptr %9, align 8, !tbaa !57
  %57 = getelementptr inbounds nuw %struct.AVFilterLink, ptr %56, i32 0, i32 13
  %58 = load ptr, ptr %10, align 8, !tbaa !57
  %59 = getelementptr inbounds nuw %struct.AVFilterLink, ptr %58, i32 0, i32 13
  %60 = load i64, ptr %57, align 8
  %61 = load i64, ptr %59, align 8
  %62 = call i64 @av_rescale_q(i64 noundef %55, i64 %60, i64 %61) #11
  %63 = load ptr, ptr %6, align 8, !tbaa !65
  %64 = getelementptr inbounds nuw %struct.AVFrame, ptr %63, i32 0, i32 38
  store i64 %62, ptr %64, align 8, !tbaa !115
  %65 = load ptr, ptr %6, align 8, !tbaa !65
  %66 = getelementptr inbounds nuw %struct.AVFrame, ptr %65, i32 0, i32 9
  %67 = load i64, ptr %66, align 8, !tbaa !112
  %68 = load ptr, ptr %11, align 8, !tbaa !114
  %69 = getelementptr inbounds nuw %struct.concat_in, ptr %68, i32 0, i32 0
  store i64 %67, ptr %69, align 8, !tbaa !103
  %70 = load ptr, ptr %11, align 8, !tbaa !114
  %71 = getelementptr inbounds nuw %struct.concat_in, ptr %70, i32 0, i32 1
  %72 = load i64, ptr %71, align 8, !tbaa !116
  %73 = add nsw i64 %72, 1
  store i64 %73, ptr %71, align 8, !tbaa !116
  %74 = load ptr, ptr %9, align 8, !tbaa !57
  %75 = getelementptr inbounds nuw %struct.AVFilterLink, ptr %74, i32 0, i32 11
  %76 = load i32, ptr %75, align 8, !tbaa !105
  %77 = icmp ne i32 %76, 0
  br i1 %77, label %78, label %96

78:                                               ; preds = %3
  %79 = load ptr, ptr %6, align 8, !tbaa !65
  %80 = getelementptr inbounds nuw %struct.AVFrame, ptr %79, i32 0, i32 5
  %81 = load i32, ptr %80, align 8, !tbaa !117
  %82 = sext i32 %81 to i64
  %83 = load ptr, ptr %9, align 8, !tbaa !57
  %84 = getelementptr inbounds nuw %struct.AVFilterLink, ptr %83, i32 0, i32 11
  %85 = load i32, ptr %84, align 8, !tbaa !105
  %86 = call i64 @av_make_q(i32 noundef 1, i32 noundef %85)
  store i64 %86, ptr %12, align 4
  %87 = load ptr, ptr %10, align 8, !tbaa !57
  %88 = getelementptr inbounds nuw %struct.AVFilterLink, ptr %87, i32 0, i32 13
  %89 = load i64, ptr %12, align 4
  %90 = load i64, ptr %88, align 8
  %91 = call i64 @av_rescale_q(i64 noundef %82, i64 %89, i64 %90) #11
  %92 = load ptr, ptr %11, align 8, !tbaa !114
  %93 = getelementptr inbounds nuw %struct.concat_in, ptr %92, i32 0, i32 0
  %94 = load i64, ptr %93, align 8, !tbaa !103
  %95 = add nsw i64 %94, %91
  store i64 %95, ptr %93, align 8, !tbaa !103
  br label %116

96:                                               ; preds = %3
  %97 = load ptr, ptr %11, align 8, !tbaa !114
  %98 = getelementptr inbounds nuw %struct.concat_in, ptr %97, i32 0, i32 1
  %99 = load i64, ptr %98, align 8, !tbaa !116
  %100 = icmp sge i64 %99, 2
  br i1 %100, label %101, label %115

101:                                              ; preds = %96
  %102 = load ptr, ptr %11, align 8, !tbaa !114
  %103 = getelementptr inbounds nuw %struct.concat_in, ptr %102, i32 0, i32 0
  %104 = load i64, ptr %103, align 8, !tbaa !103
  %105 = load ptr, ptr %11, align 8, !tbaa !114
  %106 = getelementptr inbounds nuw %struct.concat_in, ptr %105, i32 0, i32 1
  %107 = load i64, ptr %106, align 8, !tbaa !116
  %108 = load ptr, ptr %11, align 8, !tbaa !114
  %109 = getelementptr inbounds nuw %struct.concat_in, ptr %108, i32 0, i32 1
  %110 = load i64, ptr %109, align 8, !tbaa !116
  %111 = sub nsw i64 %110, 1
  %112 = call i64 @av_rescale(i64 noundef %104, i64 noundef %107, i64 noundef %111) #11
  %113 = load ptr, ptr %11, align 8, !tbaa !114
  %114 = getelementptr inbounds nuw %struct.concat_in, ptr %113, i32 0, i32 0
  store i64 %112, ptr %114, align 8, !tbaa !103
  br label %115

115:                                              ; preds = %101, %96
  br label %116

116:                                              ; preds = %115, %78
  %117 = load ptr, ptr %7, align 8, !tbaa !22
  %118 = getelementptr inbounds nuw %struct.ConcatContext, ptr %117, i32 0, i32 4
  %119 = load i64, ptr %118, align 8, !tbaa !68
  %120 = load ptr, ptr %6, align 8, !tbaa !65
  %121 = getelementptr inbounds nuw %struct.AVFrame, ptr %120, i32 0, i32 9
  %122 = load i64, ptr %121, align 8, !tbaa !112
  %123 = add nsw i64 %122, %119
  store i64 %123, ptr %121, align 8, !tbaa !112
  %124 = load ptr, ptr %10, align 8, !tbaa !57
  %125 = load ptr, ptr %6, align 8, !tbaa !65
  %126 = call i32 @ff_filter_frame(ptr noundef %124, ptr noundef %125)
  call void @llvm.lifetime.end.p0(i64 8, ptr %11) #9
  call void @llvm.lifetime.end.p0(i64 8, ptr %10) #9
  call void @llvm.lifetime.end.p0(i64 8, ptr %9) #9
  call void @llvm.lifetime.end.p0(i64 4, ptr %8) #9
  call void @llvm.lifetime.end.p0(i64 8, ptr %7) #9
  ret i32 %126
}