; Function Attrs: nounwind uwtable
define internal fastcc i32 @push_frame(ptr noundef readonly captures(none) %0, i32 noundef %1, ptr noundef %2) unnamed_addr #1 {
  %4 = getelementptr inbounds nuw i8, ptr %0, i64 72
  %5 = load ptr, ptr %4, align 8, !tbaa !4
  %6 = getelementptr inbounds nuw i8, ptr %0, i64 64
  %7 = load i32, ptr %6, align 8, !tbaa !38
  %8 = urem i32 %1, %7
  %9 = getelementptr inbounds nuw i8, ptr %0, i64 32
  %10 = load ptr, ptr %9, align 8, !tbaa !50
  %11 = zext i32 %1 to i64
  %12 = getelementptr inbounds nuw ptr, ptr %10, i64 %11
  %13 = load ptr, ptr %12, align 8, !tbaa !46
  %14 = getelementptr inbounds nuw i8, ptr %0, i64 56
  %15 = load ptr, ptr %14, align 8, !tbaa !45
  %16 = zext i32 %8 to i64
  %17 = getelementptr inbounds nuw ptr, ptr %15, i64 %16
  %18 = load ptr, ptr %17, align 8, !tbaa !46
  %19 = getelementptr inbounds nuw i8, ptr %5, i64 40
  %20 = load ptr, ptr %19, align 8, !tbaa !37
  %21 = getelementptr inbounds nuw %struct.concat_in, ptr %20, i64 %11
  %22 = getelementptr inbounds nuw i8, ptr %2, i64 136
  %23 = load i64, ptr %22, align 8, !tbaa !96
  %24 = getelementptr inbounds nuw i8, ptr %13, i64 96
  %25 = getelementptr inbounds nuw i8, ptr %18, i64 96
  %26 = load i64, ptr %24, align 8
  %27 = load i64, ptr %25, align 8
  %28 = tail call i64 @av_rescale_q(i64 noundef %23, i64 %26, i64 %27) #10
  store i64 %28, ptr %22, align 8, !tbaa !96
  %29 = getelementptr inbounds nuw i8, ptr %2, i64 408
  %30 = load i64, ptr %29, align 8, !tbaa !99
  %31 = load i64, ptr %24, align 8
  %32 = load i64, ptr %25, align 8
  %33 = tail call i64 @av_rescale_q(i64 noundef %30, i64 %31, i64 %32) #10
  store i64 %33, ptr %29, align 8, !tbaa !99
  store i64 %28, ptr %21, align 8, !tbaa !87
  %34 = getelementptr inbounds nuw i8, ptr %21, i64 8
  %35 = load i64, ptr %34, align 8, !tbaa !100
  %36 = add nsw i64 %35, 1
  store i64 %36, ptr %34, align 8, !tbaa !100
  %37 = getelementptr inbounds nuw i8, ptr %13, i64 64
  %38 = load i32, ptr %37, align 8, !tbaa !89
  %.not = icmp eq i32 %38, 0
  br i1 %.not, label %46, label %39

39:                                               ; preds = %3
  %40 = getelementptr inbounds nuw i8, ptr %2, i64 112
  %41 = load i32, ptr %40, align 8, !tbaa !101
  %42 = sext i32 %41 to i64
  %.sroa.2.0.insert.ext.i = zext i32 %38 to i64
  %.sroa.2.0.insert.shift.i = shl nuw i64 %.sroa.2.0.insert.ext.i, 32
  %.sroa.0.0.insert.insert.i = or disjoint i64 %.sroa.2.0.insert.shift.i, 1
  %43 = load i64, ptr %25, align 8
  %44 = tail call i64 @av_rescale_q(i64 noundef %42, i64 %.sroa.0.0.insert.insert.i, i64 %43) #10
  %45 = add nsw i64 %44, %28
  br label %.sink.split

46:                                               ; preds = %3
  %47 = icmp sgt i64 %35, 0
  br i1 %47, label %48, label %50

48:                                               ; preds = %46
  %49 = tail call i64 @av_rescale(i64 noundef %28, i64 noundef %36, i64 noundef %35) #10
  br label %.sink.split

.sink.split:                                      ; preds = %39, %48
  %.sink = phi i64 [ %49, %48 ], [ %45, %39 ]
  store i64 %.sink, ptr %21, align 8, !tbaa !87
  br label %50

50:                                               ; preds = %.sink.split, %46
  %51 = getelementptr inbounds nuw i8, ptr %5, i64 24
  %52 = load i64, ptr %51, align 8, !tbaa !58
  %53 = add nsw i64 %52, %28
  store i64 %53, ptr %22, align 8, !tbaa !96
  %54 = tail call i32 @ff_filter_frame(ptr noundef nonnull %18, ptr noundef nonnull %2) #8
  ret i32 %54
}